; Function Attrs: mustprogress uwtable
define void @_ZN8LightGBM8Metadata16InsertInitScoresEPKdiii(ptr noundef nonnull align 8 dereferenceable(300) %0, ptr noundef readonly captures(none) %1, i32 noundef %2, i32 noundef %3, i32 noundef %4) local_unnamed_addr #8 align 2 personality ptr @__gxx_personality_v0 {
  %6 = getelementptr inbounds nuw i8, ptr %0, i64 200
  %7 = load i64, ptr %6, align 8, !tbaa !92
  %8 = icmp slt i64 %7, 1
  br i1 %8, label %9, label %10

9:                                                ; preds = %5
  tail call void (ptr, ...) @_ZN8LightGBM3Log5FatalEPKcz(ptr noundef nonnull @.str.27)
  br label %10

10:                                               ; preds = %9, %5
  %11 = add nsw i32 %3, %2
  %12 = getelementptr inbounds nuw i8, ptr %0, i64 32
  %13 = load i32, ptr %12, align 8, !tbaa !40
  %14 = icmp sgt i32 %11, %13
  br i1 %14, label %15, label %16

15:                                               ; preds = %10
  tail call void (ptr, ...) @_ZN8LightGBM3Log5FatalEPKcz(ptr noundef nonnull @.str.28)
  br label %16

16:                                               ; preds = %15, %10
  %17 = getelementptr inbounds nuw i8, ptr %0, i64 208
  %18 = load ptr, ptr %17, align 8, !tbaa !109
  %19 = getelementptr inbounds nuw i8, ptr %0, i64 216
  %20 = load ptr, ptr %19, align 8, !tbaa !109
  %21 = icmp eq ptr %18, %20
  br i1 %21, label %22, label %_ZNSt6vectorIdSaIdEE6resizeEm.exit

22:                                               ; preds = %16
  %23 = load i64, ptr %6, align 8, !tbaa !92
  %.not = icmp eq i64 %23, 0
  br i1 %.not, label %_ZNSt6vectorIdSaIdEE6resizeEm.exit, label %24

24:                                               ; preds = %22
  tail call void @_ZNSt6vectorIdSaIdEE17_M_default_appendEm(ptr noundef nonnull align 8 dereferenceable(24) %17, i64 noundef %23)
  br label %_ZNSt6vectorIdSaIdEE6resizeEm.exit

_ZNSt6vectorIdSaIdEE6resizeEm.exit:               ; preds = %22, %24, %16
  %25 = load i32, ptr %12, align 8, !tbaa !40
  %.not.i = icmp eq i32 %25, 0
  br i1 %.not.i, label %.lr.ph, label %26

26:                                               ; preds = %_ZNSt6vectorIdSaIdEE6resizeEm.exit
  %27 = load i64, ptr %6, align 8, !tbaa !92
  %.not3.i = icmp eq i64 %27, 0
  br i1 %.not3.i, label %.lr.ph, label %_ZNK8LightGBM8Metadata22num_init_score_classesEv.exit

_ZNK8LightGBM8Metadata22num_init_score_classesEv.exit: ; preds = %26
  %28 = sext i32 %25 to i64
  %29 = sdiv i64 %27, %28
  %30 = trunc i64 %29 to i32
  %31 = icmp sgt i32 %30, 0
  br i1 %31, label %.lr.ph, label %._crit_edge

.lr.ph:                                           ; preds = %_ZNSt6vectorIdSaIdEE6resizeEm.exit, %26, %_ZNK8LightGBM8Metadata22num_init_score_classesEv.exit
  %.0.i16 = phi i64 [ %29, %_ZNK8LightGBM8Metadata22num_init_score_classesEv.exit ], [ 1, %26 ], [ 1, %_ZNSt6vectorIdSaIdEE6resizeEm.exit ]
  %32 = sext i32 %3 to i64
  %33 = shl nsw i64 %32, 3
  %34 = sext i32 %4 to i64
  %wide.trip.count = and i64 %.0.i16, 4294967295
  br label %36

._crit_edge:                                      ; preds = %36, %_ZNK8LightGBM8Metadata22num_init_score_classesEv.exit
  %35 = getelementptr inbounds nuw i8, ptr %0, i64 299
  store i8 0, ptr %35, align 1, !tbaa !98
  ret void

36:                                               ; preds = %.lr.ph, %36
  %indvars.iv = phi i64 [ 0, %.lr.ph ], [ %indvars.iv.next, %36 ]
  %37 = load i32, ptr %12, align 8, !tbaa !40
  %38 = trunc nuw nsw i64 %indvars.iv to i32
  %39 = mul nsw i32 %37, %38
  %40 = add nsw i32 %39, %2
  %41 = mul nsw i64 %indvars.iv, %34
  %42 = load ptr, ptr %17, align 8, !tbaa !95
  %43 = sext i32 %40 to i64
  %44 = getelementptr inbounds double, ptr %42, i64 %43
  %45 = getelementptr inbounds double, ptr %1, i64 %41
  tail call void @llvm.memcpy.p0.p0.i64(ptr align 8 %44, ptr align 8 %45, i64 %33, i1 false)
  %indvars.iv.next = add nuw nsw i64 %indvars.iv, 1
  %exitcond.not = icmp eq i64 %indvars.iv.next, %wide.trip.count
  br i1 %exitcond.not, label %._crit_edge, label %36, !llvm.loop !169
}